Certificate:
    Data:
        Version: 3 (0x2)
        Serial Number: 1 (0x1)
        Signature Algorithm: ecdsa-with-SHA1
        Issuer: O=Bitcoin Australia, OU=Secure Digital Certificate Signing, CN=Bitcoin Australia Certification Authority
        Validity
            Not Before: Jul 31 16:50:04 2011 GMT
            Not After : Jul 28 16:50:04 2021 GMT
        Subject: O=Bitcoin Australia, OU=Secure Digital Certificate Signing, CN=Bitcoin Australia Certification Authority
        Subject Public Key Info:
            Public Key Algorithm: id-ecPublicKey
            EC Public Key:
                pub: 
                    04:07:ef:ae:41:9f:ba:4b:77:3a:fd:ca:25:39:6d:
                    af:ad:74:86:d0:0b:6a:af:1d:b1:dc:1c:9d:22:3b:
                    00:1a:3b:2c:d3:88:fa:45:de:88:cb:5b:36:33:2c:
                    1a:64:06:e3:f5:a5:e6:08:34:fe:8c:ae:da:ee:c4:
                    73:96:ea:68:24
                ASN1 OID: prime256v1
        X509v3 extensions:
            X509v3 Basic Constraints: 
                CA:TRUE
            X509v3 Key Usage: 
                Digital Signature, Key Encipherment, Key Agreement, Certificate Sign, CRL Sign
            X509v3 Subject Key Identifier: 
                AB:06:F7:1C:6E:D6:21:4D:C0:B1:15:37:5E:9A:4A:EC:78:F5:1E:71
            X509v3 Extended Key Usage: 
                TLS Web Server Authentication, TLS Web Client Authentication, E-mail Protection, Code Signing, Time Stamping
            X509v3 CRL Distribution Points: 
                URI:http://crl.ausbit.org/root_ca.crl
                URI:http://cert.ausbit.org/root_ca.crl
                URI:http://cert.btcaus.com/ba_root_ca.crl

    Signature Algorithm: ecdsa-with-SHA1
        30:44:02:20:77:0b:c4:e9:7f:99:eb:b3:f0:94:5a:0e:7e:e8:
        19:0d:18:32:28:5b:9b:00:3a:c4:08:1b:34:b7:05:2f:de:73:
        02:20:70:d8:f5:74:0c:6a:ae:04:79:83:60:18:98:85:c2:08:
        db:41:1a:62:2f:51:42:b4:c4:63:fa:8f:0b:9d:63:d8
-----BEGIN CERTIFICATE-----
MIIC8TCCApmgAwIBAgIBATAJBgcqhkjOPQQBMH0xGjAYBgNVBAoMEUJpdGNvaW4g
QXVzdHJhbGlhMSswKQYDVQQLDCJTZWN1cmUgRGlnaXRhbCBDZXJ0aWZpY2F0ZSBT
aWduaW5nMTIwMAYDVQQDDClCaXRjb2luIEF1c3RyYWxpYSBDZXJ0aWZpY2F0aW9u
IEF1dGhvcml0eTAeFw0xMTA3MzExNjUwMDRaFw0yMTA3MjgxNjUwMDRaMH0xGjAY
BgNVBAoMEUJpdGNvaW4gQXVzdHJhbGlhMSswKQYDVQQLDCJTZWN1cmUgRGlnaXRh
bCBDZXJ0aWZpY2F0ZSBTaWduaW5nMTIwMAYDVQQDDClCaXRjb2luIEF1c3RyYWxp
YSBDZXJ0aWZpY2F0aW9uIEF1dGhvcml0eTBZMBMGByqGSM49AgEGCCqGSM49AwEH
A0IABAfvrkGfukt3Ov3KJTltr610htALaq8dsdwcnSI7ABo7LNOI+kXeiMtbNjMs
GmQG4/Wl5gg0/oyu2u7Ec5bqaCSjggEJMIIBBTAMBgNVHRMEBTADAQH/MAsGA1Ud
DwQEAwIBrjAdBgNVHQ4EFgQUqwb3HG7WIU3AsRU3XppK7Hj1HnEwOwYDVR0lBDQw
MgYIKwYBBQUHAwEGCCsGAQUFBwMCBggrBgEFBQcDBAYIKwYBBQUHAwMGCCsGAQUF
BwMIMIGLBgNVHR8EgYMwgYAwJ6AloCOGIWh0dHA6Ly9jcmwuYXVzYml0Lm9yZy9y
b290X2NhLmNybDAooCagJIYiaHR0cDovL2NlcnQuYXVzYml0Lm9yZy9yb290X2Nh
LmNybDAroCmgJ4YlaHR0cDovL2NlcnQuYnRjYXVzLmNvbS9iYV9yb290X2NhLmNy
bDAJBgcqhkjOPQQBA0cAMEQCIHcLxOl/meuz8JRaDn7oGQ0YMihbmwA6xAgbNLcF
L95zAiBw2PV0DGquBHmDYBiYhcII20EaYi9RQrTEY/qPC51j2A==
-----END CERTIFICATE-----
