Certificate:
    Data:
        Version: 3 (0x2)
        Serial Number: 2 (0x2)
        Signature Algorithm: ecdsa-with-SHA1
        Issuer: O=Bitcoin Australia, OU=Secure Digital Certificate Signing, CN=Bitcoin Australia Certification Authority
        Validity
            Not Before: Jul 31 16:50:33 2011 GMT
            Not After : Jul 30 16:50:33 2012 GMT
        Subject: O=Bitcoin Australia, OU=Secure Digital Certificate Signing, CN=Bitcoin Australia Certification Authority
        Subject Public Key Info:
            Public Key Algorithm: id-ecPublicKey
            EC Public Key:
                pub: 
                    04:60:cd:16:70:97:68:d7:47:b2:0c:56:68:19:84:
                    a8:a0:fa:73:57:5f:7a:f6:bf:de:39:46:15:a6:1b:
                    ad:7b:06:56:e9:dd:76:fd:37:d4:cf:8b:e2:67:81:
                    f1:27:c0:4c:4b:1f:c3:55:07:b3:d7:ba:5e:7e:8f:
                    dc:c1:ca:9d:85
                ASN1 OID: prime256v1
        X509v3 extensions:
            X509v3 Basic Constraints: 
                CA:TRUE
            X509v3 Key Usage: 
                Certificate Sign, CRL Sign
            X509v3 Subject Key Identifier: 
                0F:1D:6A:9B:EE:2F:0D:FC:1B:ED:9B:DA:73:F3:E6:1D:21:86:79:52
            X509v3 CRL Distribution Points: 
                URI:http://crl.ausbit.org/root_ca.crl
                URI:http://cert.ausbit.org/root_ca.crl
                URI:http://cert.btcaus.com/ba_root_ca.crl

            Authority Information Access: 
                CA Issuers - URI:http://cert.ausbit.org/root_ca.crt

    Signature Algorithm: ecdsa-with-SHA1
        30:46:02:21:00:eb:4b:84:a9:f5:2e:e6:d6:7b:e5:d9:2d:ec:
        32:df:89:ff:d0:91:e9:c9:e2:4f:97:08:7f:02:d5:70:6f:2a:
        97:02:21:00:a4:a0:78:07:98:c9:65:36:0d:f2:91:24:82:3d:
        75:a1:17:6f:43:c2:eb:ab:1e:f9:50:de:08:cb:c6:5c:d0:92
-----BEGIN CERTIFICATE-----
MIIC9jCCApygAwIBAgIBAjAJBgcqhkjOPQQBMH0xGjAYBgNVBAoMEUJpdGNvaW4g
QXVzdHJhbGlhMSswKQYDVQQLDCJTZWN1cmUgRGlnaXRhbCBDZXJ0aWZpY2F0ZSBT
aWduaW5nMTIwMAYDVQQDDClCaXRjb2luIEF1c3RyYWxpYSBDZXJ0aWZpY2F0aW9u
IEF1dGhvcml0eTAeFw0xMTA3MzExNjUwMzNaFw0xMjA3MzAxNjUwMzNaMH0xGjAY
BgNVBAoMEUJpdGNvaW4gQXVzdHJhbGlhMSswKQYDVQQLDCJTZWN1cmUgRGlnaXRh
bCBDZXJ0aWZpY2F0ZSBTaWduaW5nMTIwMAYDVQQDDClCaXRjb2luIEF1c3RyYWxp
YSBDZXJ0aWZpY2F0aW9uIEF1dGhvcml0eTBZMBMGByqGSM49AgEGCCqGSM49AwEH
A0IABGDNFnCXaNdHsgxWaBmEqKD6c1dfeva/3jlGFaYbrXsGVunddv031M+L4meB
8SfATEsfw1UHs9e6Xn6P3MHKnYWjggEMMIIBCDAMBgNVHRMEBTADAQH/MAsGA1Ud
DwQEAwIBBjAdBgNVHQ4EFgQUDx1qm+4vDfwb7Zvac/PmHSGGeVIwgYsGA1UdHwSB
gzCBgDAnoCWgI4YhaHR0cDovL2NybC5hdXNiaXQub3JnL3Jvb3RfY2EuY3JsMCig
JqAkhiJodHRwOi8vY2VydC5hdXNiaXQub3JnL3Jvb3RfY2EuY3JsMCugKaAnhiVo
dHRwOi8vY2VydC5idGNhdXMuY29tL2JhX3Jvb3RfY2EuY3JsMD4GCCsGAQUFBwEB
BDIwMDAuBggrBgEFBQcwAoYiaHR0cDovL2NlcnQuYXVzYml0Lm9yZy9yb290X2Nh
LmNydDAJBgcqhkjOPQQBA0kAMEYCIQDrS4Sp9S7m1nvl2S3sMt+J/9CR6cniT5cI
fwLVcG8qlwIhAKSgeAeYyWU2DfKRJII9daEXb0PC66se+VDeCMvGXNCS
-----END CERTIFICATE-----
