Certificate:
    Data:
        Version: 3 (0x2)
        Serial Number: 1 (0x1)
        Signature Algorithm: ecdsa-with-SHA1
        Issuer: O=Bitcoin Australia, OU=Secure Digital Certificate Signing, CN=Bitcoin Australia Certification Authority
        Validity
            Not Before: Jul 31 16:51:18 2011 GMT
            Not After : Jul 30 16:51:18 2012 GMT
        Subject: C=aa, ST=aaa, O=Bitcoin Australia, OU=Secure Digital Certificate Signing, CN=Bitcoin Australia Certification Authority
        Subject Public Key Info:
            Public Key Algorithm: id-ecPublicKey
            EC Public Key:
                pub: 
                    04:68:a2:59:63:b9:33:19:7f:49:c8:ac:be:5e:7f:
                    23:49:74:ab:98:af:63:8f:75:ef:60:e6:58:c1:96:
                    7c:48:36:9a:c9:55:48:bd:10:a5:2e:ba:a0:b2:4a:
                    6e:ee:8f:d9:26:31:e5:f9:fe:89:28:1b:fc:bb:f6:
                    b8:14:49:ba:c7
                ASN1 OID: prime256v1
        X509v3 extensions:
            X509v3 Basic Constraints: 
                CA:FALSE
            X509v3 Subject Key Identifier: 
                3A:89:82:0C:2B:BE:FA:95:3F:EA:00:62:FE:35:DB:89:C6:E8:F0:61
            X509v3 CRL Distribution Points: 
                URI:http://crl.ausbit.org/ca1.crl

            Authority Information Access: 
                CA Issuers - URI:http://cert.ausbit.org/ca1.crt

            X509v3 Key Usage: 
                Digital Signature, Key Encipherment, Key Agreement
            X509v3 Extended Key Usage: 
                TLS Web Server Authentication
    Signature Algorithm: ecdsa-with-SHA1
        30:44:02:20:4b:df:13:d4:11:e2:a1:1b:62:bc:af:18:2a:5c:
        15:9f:3f:19:09:a2:69:99:a7:9d:72:52:b4:4b:a3:f3:d8:b4:
        02:20:0d:46:7a:dd:ef:45:0b:9a:25:11:0a:40:72:52:c4:80:
        e5:f1:08:53:f7:0e:88:d2:f5:df:43:da:7a:2d:ca:a8
-----BEGIN CERTIFICATE-----
MIICvjCCAmagAwIBAgIBATAJBgcqhkjOPQQBMH0xGjAYBgNVBAoMEUJpdGNvaW4g
QXVzdHJhbGlhMSswKQYDVQQLDCJTZWN1cmUgRGlnaXRhbCBDZXJ0aWZpY2F0ZSBT
aWduaW5nMTIwMAYDVQQDDClCaXRjb2luIEF1c3RyYWxpYSBDZXJ0aWZpY2F0aW9u
IEF1dGhvcml0eTAeFw0xMTA3MzExNjUxMThaFw0xMjA3MzAxNjUxMThaMIGYMQsw
CQYDVQQGEwJhYTEMMAoGA1UECAwDYWFhMRowGAYDVQQKDBFCaXRjb2luIEF1c3Ry
YWxpYTErMCkGA1UECwwiU2VjdXJlIERpZ2l0YWwgQ2VydGlmaWNhdGUgU2lnbmlu
ZzEyMDAGA1UEAwwpQml0Y29pbiBBdXN0cmFsaWEgQ2VydGlmaWNhdGlvbiBBdXRo
b3JpdHkwWTATBgcqhkjOPQIBBggqhkjOPQMBBwNCAARoolljuTMZf0nIrL5efyNJ
dKuYr2OPde9g5ljBlnxINprJVUi9EKUuuqCySm7uj9kmMeX5/okoG/y79rgUSbrH
o4G7MIG4MAkGA1UdEwQCMAAwHQYDVR0OBBYEFDqJggwrvvqVP+oAYv4124nG6PBh
MC4GA1UdHwQnMCUwI6AhoB+GHWh0dHA6Ly9jcmwuYXVzYml0Lm9yZy9jYTEuY3Js
MDoGCCsGAQUFBwEBBC4wLDAqBggrBgEFBQcwAoYeaHR0cDovL2NlcnQuYXVzYml0
Lm9yZy9jYTEuY3J0MAsGA1UdDwQEAwIDqDATBgNVHSUEDDAKBggrBgEFBQcDATAJ
BgcqhkjOPQQBA0cAMEQCIEvfE9QR4qEbYryvGCpcFZ8/GQmiaZmnnXJStEuj89i0
AiANRnrd70ULmiURCkByUsSA5fEIU/cOiNL130Paei3KqA==
-----END CERTIFICATE-----
