Certificate:
    Data:
        Version: 3 (0x2)
        Serial Number: 2 (0x2)
        Signature Algorithm: ecdsa-with-SHA1
        Issuer: O=Bitcoin Australia, OU=Secure Digital Certificate Signing, CN=Bitcoin Australia Certification Authority
        Validity
            Not Before: Jul 31 16:51:29 2011 GMT
            Not After : Jul 30 16:51:29 2012 GMT
        Subject: C=AU, ST=Victoria, O=Bitcoin Australia, OU=Server, CN=*.bitcoin.com.au
        Subject Public Key Info:
            Public Key Algorithm: rsaEncryption
            RSA Public Key: (2048 bit)
                Modulus (2048 bit):
                    00:cb:24:ee:fe:02:38:69:ef:c9:20:cc:ad:92:e8:
                    f6:da:fe:4a:d5:61:5c:e4:72:ec:e3:34:a8:80:6f:
                    1a:37:cf:9e:44:b4:be:1d:87:53:04:cc:8f:be:28:
                    88:58:0d:0e:95:cd:16:9c:39:f9:c9:5e:73:da:98:
                    56:15:bf:59:9a:5e:28:e3:8f:83:ff:65:4f:db:32:
                    88:ac:ae:fa:78:e7:7a:90:b3:68:3d:c2:3d:1e:a7:
                    80:e8:ac:47:57:b3:cf:c6:ea:89:44:ac:43:c4:63:
                    b3:ac:4e:36:03:57:47:0d:e4:6f:df:4e:4e:f5:91:
                    ac:0c:30:88:6a:06:c7:33:65:18:f6:3d:d8:ef:4e:
                    c9:94:c3:98:a2:f2:18:99:4a:e7:f2:df:f1:71:4e:
                    10:67:d1:cd:00:5e:48:cc:19:ea:9a:69:81:1a:38:
                    ac:d8:dc:4b:e5:6f:1e:08:de:b4:d3:d0:64:aa:ea:
                    32:e9:e2:10:ad:9f:ec:4d:b2:98:87:8f:84:3c:9e:
                    2e:14:a2:a1:13:3f:46:7a:72:75:00:96:26:98:26:
                    2b:9f:0f:8c:e8:15:ec:ae:18:7a:02:4b:06:7d:6b:
                    15:f5:f9:5f:33:23:1a:9c:46:3c:9d:55:a8:dc:81:
                    25:ba:1d:2d:c2:ad:c0:b5:fc:48:55:52:d3:c6:43:
                    81:db
                Exponent: 65537 (0x10001)
        X509v3 extensions:
            X509v3 Basic Constraints: 
                CA:FALSE
            X509v3 Subject Key Identifier: 
                D1:9A:59:83:70:05:83:1F:2C:1E:B2:52:FB:A0:E1:CB:7F:2A:06:E1
            X509v3 CRL Distribution Points: 
                URI:http://crl.ausbit.org/ca1.crl

            Authority Information Access: 
                CA Issuers - URI:http://cert.ausbit.org/ca1.crt

            X509v3 Key Usage: critical
                Digital Signature, Key Encipherment
    Signature Algorithm: ecdsa-with-SHA1
        30:44:02:20:46:05:f5:03:c3:0d:5f:c8:3f:83:46:80:16:08:
        5c:f0:6f:fa:22:73:aa:5b:09:d2:73:81:f0:5f:53:23:c1:4d:
        02:20:71:ee:60:38:9e:71:8d:17:8a:47:85:8c:f2:d7:3d:20:
        b1:52:e3:69:78:e1:15:00:11:15:bf:f4:b8:7e:7f:ae
-----BEGIN CERTIFICATE-----
MIIDRjCCAu6gAwIBAgIBAjAJBgcqhkjOPQQBMH0xGjAYBgNVBAoMEUJpdGNvaW4g
QXVzdHJhbGlhMSswKQYDVQQLDCJTZWN1cmUgRGlnaXRhbCBDZXJ0aWZpY2F0ZSBT
aWduaW5nMTIwMAYDVQQDDClCaXRjb2luIEF1c3RyYWxpYSBDZXJ0aWZpY2F0aW9u
IEF1dGhvcml0eTAeFw0xMTA3MzExNjUxMjlaFw0xMjA3MzAxNjUxMjlaMGgxCzAJ
BgNVBAYTAkFVMREwDwYDVQQIDAhWaWN0b3JpYTEaMBgGA1UECgwRQml0Y29pbiBB
dXN0cmFsaWExDzANBgNVBAsMBlNlcnZlcjEZMBcGA1UEAwwQKi5iaXRjb2luLmNv
bS5hdTCCASIwDQYJKoZIhvcNAQEBBQADggEPADCCAQoCggEBAMsk7v4COGnvySDM
rZLo9tr+StVhXORy7OM0qIBvGjfPnkS0vh2HUwTMj74oiFgNDpXNFpw5+clec9qY
VhW/WZpeKOOPg/9lT9syiKyu+njnepCzaD3CPR6ngOisR1ezz8bqiUSsQ8Rjs6xO
NgNXRw3kb99OTvWRrAwwiGoGxzNlGPY92O9OyZTDmKLyGJlK5/Lf8XFOEGfRzQBe
SMwZ6pppgRo4rNjcS+VvHgjetNPQZKrqMuniEK2f7E2ymIePhDyeLhSioRM/Rnpy
dQCWJpgmK58PjOgV7K4YegJLBn1rFfX5XzMjGpxGPJ1VqNyBJbodLcKtwLX8SFVS
08ZDgdsCAwEAAaOBqTCBpjAJBgNVHRMEAjAAMB0GA1UdDgQWBBTRmlmDcAWDHywe
slL7oOHLfyoG4TAuBgNVHR8EJzAlMCOgIaAfhh1odHRwOi8vY3JsLmF1c2JpdC5v
cmcvY2ExLmNybDA6BggrBgEFBQcBAQQuMCwwKgYIKwYBBQUHMAKGHmh0dHA6Ly9j
ZXJ0LmF1c2JpdC5vcmcvY2ExLmNydDAOBgNVHQ8BAf8EBAMCBaAwCQYHKoZIzj0E
AQNHADBEAiBGBfUDww1fyD+DRoAWCFzwb/oic6pbCdJzgfBfUyPBTQIgce5gOJ5x
jReKR4WM8tc9ILFS42l44RUAERW/9Lh+f64=
-----END CERTIFICATE-----
